; ModuleID = '32/1503.c'
source_filename = "32/1503.c"
target datalayout = "e-m:e-p270:32:32-p271:32:32-p272:64:64-i64:64-f80:128-n8:16:32:64-S128"
target triple = "x86_64-pc-linux-gnu"

@.str = private unnamed_addr constant [3 x i8] c"%d\00", align 1
@.str.1 = private unnamed_addr constant [3 x i8] c"%s\00", align 1
@.str.2 = private unnamed_addr constant [2 x i8] c"\0A\00", align 1

; Function Attrs: noinline nounwind uwtable
define dso_local i32 @main(i32 %0, i8** %1) #0 {
  %3 = alloca i32, align 4
  %4 = alloca i32, align 4
  %5 = alloca i8**, align 8
  %6 = alloca i32, align 4
  %7 = alloca i32, align 4
  %8 = alloca i32, align 4
  %9 = alloca i32, align 4
  %10 = alloca i32, align 4
  %11 = alloca i32, align 4
  %12 = alloca i32, align 4
  %13 = alloca [100 x i8], align 16
  %14 = alloca [100 x i8], align 16
  %15 = alloca [100 x i8], align 16
  store i32 0, i32* %3, align 4
  store i32 %0, i32* %4, align 4
  store i8** %1, i8*** %5, align 8
  %16 = bitcast [100 x i8]* %15 to i8*
  call void @llvm.memset.p0i8.i64(i8* align 16 %16, i8 0, i64 100, i1 false)
  %17 = call i32 (i8*, ...) @__isoc99_scanf(i8* getelementptr inbounds ([3 x i8], [3 x i8]* @.str, i64 0, i64 0), i32* %6)
  store i32 0, i32* %7, align 4
  br label %18

18:                                               ; preds = %171, %2
  %19 = load i32, i32* %7, align 4
  %20 = load i32, i32* %6, align 4
  %21 = icmp slt i32 %19, %20
  br i1 %21, label %22, label %174

22:                                               ; preds = %18
  %23 = getelementptr inbounds [100 x i8], [100 x i8]* %15, i64 0, i64 0
  %24 = call i64 @strlen(i8* %23) #4
  %25 = trunc i64 %24 to i32
  store i32 %25, i32* %10, align 4
  store i32 0, i32* %8, align 4
  br label %26

26:                                               ; preds = %34, %22
  %27 = load i32, i32* %8, align 4
  %28 = load i32, i32* %10, align 4
  %29 = icmp slt i32 %27, %28
  br i1 %29, label %30, label %37

30:                                               ; preds = %26
  %31 = load i32, i32* %8, align 4
  %32 = sext i32 %31 to i64
  %33 = getelementptr inbounds [100 x i8], [100 x i8]* %15, i64 0, i64 %32
  store i8 0, i8* %33, align 1
  br label %34

34:                                               ; preds = %30
  %35 = load i32, i32* %8, align 4
  %36 = add nsw i32 %35, 1
  store i32 %36, i32* %8, align 4
  br label %26

37:                                               ; preds = %26
  %38 = call i32 (i8*, ...) @__isoc99_scanf(i8* getelementptr inbounds ([3 x i8], [3 x i8]* @.str.1, i64 0, i64 0), [100 x i8]* %13)
  %39 = call i32 (i8*, ...) @__isoc99_scanf(i8* getelementptr inbounds ([3 x i8], [3 x i8]* @.str.1, i64 0, i64 0), [100 x i8]* %14)
  %40 = getelementptr inbounds [100 x i8], [100 x i8]* %13, i64 0, i64 0
  %41 = call i64 @strlen(i8* %40) #4
  %42 = trunc i64 %41 to i32
  store i32 %42, i32* %10, align 4
  %43 = getelementptr inbounds [100 x i8], [100 x i8]* %14, i64 0, i64 0
  %44 = call i64 @strlen(i8* %43) #4
  %45 = trunc i64 %44 to i32
  store i32 %45, i32* %11, align 4
  store i32 0, i32* %12, align 4
  %46 = load i32, i32* %10, align 4
  %47 = sub nsw i32 %46, 1
  store i32 %47, i32* %8, align 4
  %48 = load i32, i32* %11, align 4
  %49 = sub nsw i32 %48, 1
  store i32 %49, i32* %9, align 4
  br label %50

50:                                               ; preds = %93, %37
  %51 = load i32, i32* %8, align 4
  %52 = load i32, i32* %10, align 4
  %53 = load i32, i32* %11, align 4
  %54 = sub nsw i32 %52, %53
  %55 = sub nsw i32 %54, 1
  %56 = icmp sgt i32 %51, %55
  br i1 %56, label %57, label %98

57:                                               ; preds = %50
  %58 = load i32, i32* %8, align 4
  %59 = sext i32 %58 to i64
  %60 = getelementptr inbounds [100 x i8], [100 x i8]* %13, i64 0, i64 %59
  %61 = load i8, i8* %60, align 1
  %62 = sext i8 %61 to i32
  %63 = load i32, i32* %9, align 4
  %64 = sext i32 %63 to i64
  %65 = getelementptr inbounds [100 x i8], [100 x i8]* %14, i64 0, i64 %64
  %66 = load i8, i8* %65, align 1
  %67 = sext i8 %66 to i32
  %68 = sub nsw i32 %62, %67
  %69 = add nsw i32 %68, 48
  %70 = load i32, i32* %12, align 4
  %71 = sub nsw i32 %69, %70
  %72 = trunc i32 %71 to i8
  %73 = load i32, i32* %8, align 4
  %74 = sext i32 %73 to i64
  %75 = getelementptr inbounds [100 x i8], [100 x i8]* %15, i64 0, i64 %74
  store i8 %72, i8* %75, align 1
  %76 = load i32, i32* %8, align 4
  %77 = sext i32 %76 to i64
  %78 = getelementptr inbounds [100 x i8], [100 x i8]* %15, i64 0, i64 %77
  %79 = load i8, i8* %78, align 1
  %80 = sext i8 %79 to i32
  %81 = sub nsw i32 %80, 48
  %82 = icmp slt i32 %81, 0
  br i1 %82, label %83, label %91

83:                                               ; preds = %57
  store i32 1, i32* %12, align 4
  %84 = load i32, i32* %8, align 4
  %85 = sext i32 %84 to i64
  %86 = getelementptr inbounds [100 x i8], [100 x i8]* %15, i64 0, i64 %85
  %87 = load i8, i8* %86, align 1
  %88 = sext i8 %87 to i32
  %89 = add nsw i32 %88, 10
  %90 = trunc i32 %89 to i8
  store i8 %90, i8* %86, align 1
  br label %92

91:                                               ; preds = %57
  store i32 0, i32* %12, align 4
  br label %92

92:                                               ; preds = %91, %83
  br label %93

93:                                               ; preds = %92
  %94 = load i32, i32* %8, align 4
  %95 = add nsw i32 %94, -1
  store i32 %95, i32* %8, align 4
  %96 = load i32, i32* %9, align 4
  %97 = add nsw i32 %96, -1
  store i32 %97, i32* %9, align 4
  br label %50

98:                                               ; preds = %50
  %99 = load i32, i32* %10, align 4
  %100 = load i32, i32* %11, align 4
  %101 = sub nsw i32 %99, %100
  %102 = sub nsw i32 %101, 1
  store i32 %102, i32* %8, align 4
  br label %103

103:                                              ; preds = %135, %98
  %104 = load i32, i32* %8, align 4
  %105 = icmp sge i32 %104, 0
  br i1 %105, label %106, label %138

106:                                              ; preds = %103
  %107 = load i32, i32* %8, align 4
  %108 = sext i32 %107 to i64
  %109 = getelementptr inbounds [100 x i8], [100 x i8]* %13, i64 0, i64 %108
  %110 = load i8, i8* %109, align 1
  %111 = sext i8 %110 to i32
  %112 = load i32, i32* %12, align 4
  %113 = sub nsw i32 %111, %112
  %114 = trunc i32 %113 to i8
  %115 = load i32, i32* %8, align 4
  %116 = sext i32 %115 to i64
  %117 = getelementptr inbounds [100 x i8], [100 x i8]* %15, i64 0, i64 %116
  store i8 %114, i8* %117, align 1
  %118 = load i32, i32* %8, align 4
  %119 = sext i32 %118 to i64
  %120 = getelementptr inbounds [100 x i8], [100 x i8]* %15, i64 0, i64 %119
  %121 = load i8, i8* %120, align 1
  %122 = sext i8 %121 to i32
  %123 = sub nsw i32 %122, 48
  %124 = icmp slt i32 %123, 0
  br i1 %124, label %125, label %133

125:                                              ; preds = %106
  store i32 1, i32* %12, align 4
  %126 = load i32, i32* %8, align 4
  %127 = sext i32 %126 to i64
  %128 = getelementptr inbounds [100 x i8], [100 x i8]* %15, i64 0, i64 %127
  %129 = load i8, i8* %128, align 1
  %130 = sext i8 %129 to i32
  %131 = add nsw i32 %130, 10
  %132 = trunc i32 %131 to i8
  store i8 %132, i8* %128, align 1
  br label %134

133:                                              ; preds = %106
  store i32 0, i32* %12, align 4
  br label %134

134:                                              ; preds = %133, %125
  br label %135

135:                                              ; preds = %134
  %136 = load i32, i32* %8, align 4
  %137 = add nsw i32 %136, -1
  store i32 %137, i32* %8, align 4
  br label %103

138:                                              ; preds = %103
  %139 = getelementptr inbounds [100 x i8], [100 x i8]* %15, i64 0, i64 0
  %140 = load i8, i8* %139, align 16
  %141 = sext i8 %140 to i32
  %142 = icmp eq i32 %141, 48
  br i1 %142, label %143, label %161

143:                                              ; preds = %138
  store i32 0, i32* %8, align 4
  br label %144

144:                                              ; preds = %157, %143
  %145 = load i32, i32* %8, align 4
  %146 = load i32, i32* %10, align 4
  %147 = icmp slt i32 %145, %146
  br i1 %147, label %148, label %160

148:                                              ; preds = %144
  %149 = load i32, i32* %8, align 4
  %150 = add nsw i32 %149, 1
  %151 = sext i32 %150 to i64
  %152 = getelementptr inbounds [100 x i8], [100 x i8]* %15, i64 0, i64 %151
  %153 = load i8, i8* %152, align 1
  %154 = load i32, i32* %8, align 4
  %155 = sext i32 %154 to i64
  %156 = getelementptr inbounds [100 x i8], [100 x i8]* %15, i64 0, i64 %155
  store i8 %153, i8* %156, align 1
  br label %157

157:                                              ; preds = %148
  %158 = load i32, i32* %8, align 4
  %159 = add nsw i32 %158, 1
  store i32 %159, i32* %8, align 4
  br label %144

160:                                              ; preds = %144
  br label %161

161:                                              ; preds = %160, %138
  %162 = getelementptr inbounds [100 x i8], [100 x i8]* %15, i64 0, i64 0
  %163 = call i32 (i8*, ...) @printf(i8* getelementptr inbounds ([3 x i8], [3 x i8]* @.str.1, i64 0, i64 0), i8* %162)
  %164 = load i32, i32* %7, align 4
  %165 = load i32, i32* %6, align 4
  %166 = sub nsw i32 %165, 1
  %167 = icmp ne i32 %164, %166
  br i1 %167, label %168, label %170

168:                                              ; preds = %161
  %169 = call i32 (i8*, ...) @printf(i8* getelementptr inbounds ([2 x i8], [2 x i8]* @.str.2, i64 0, i64 0))
  br label %170

170:                                              ; preds = %168, %161
  br label %171

171:                                              ; preds = %170
  %172 = load i32, i32* %7, align 4
  %173 = add nsw i32 %172, 1
  store i32 %173, i32* %7, align 4
  br label %18

174:                                              ; preds = %18
  ret i32 0
}

; Function Attrs: argmemonly nounwind willreturn
declare void @llvm.memset.p0i8.i64(i8* nocapture writeonly, i8, i64, i1 immarg) #1

declare dso_local i32 @__isoc99_scanf(i8*, ...) #2

; Function Attrs: nounwind readonly
declare dso_local i64 @strlen(i8*) #3

declare dso_local i32 @printf(i8*, ...) #2


!llvm.module.flags = !{!0}
!llvm.ident = !{!1}

!0 = !{i32 1, !"wchar_size", i32 4}
!1 = !{!"clang version 10.0.0-4ubuntu1 "}
